target datalayout = "e-m:e-p270:32:32-p271:32:32-p272:64:64-i64:64-i128:128-f80:128-n8:16:32:64-S128"
target triple = "x86_64-pc-linux-gnu"

%struct.GCRef = type { i64 }
%struct.GCstr = type { %struct.GCRef, i8, i8, i8, i8, i32, i32, i32 }
%struct.jit_State = type { %struct.GCtrace, ptr, ptr, ptr, ptr, ptr, ptr, i32, i32, i32, i8, i8, %struct.IRType1, i8, %struct.FoldState, ptr, i32, i32, i32, i32, i32, i32, i32, [1 x i32], [5 x %union.TValue], [3 x %union.TValue], ptr, i32, i32, i32, i32, ptr, ptr, i32, i32, i8, ptr, i32, i32, i16, [101 x i16], [258 x i32], [15 x i32], [16 x ptr], [64 x %struct.HotPenalty], i32, [16 x %struct.BPropEntry], i32, %struct.ScEvEntry, ptr, i32, i32, i32, ptr, i32, i32, ptr, ptr, ptr, i64, i64, %union.TValue, ptr, i32, i32 }
%struct.GCtrace = type { %struct.GCRef, i8, i8, i16, i32, i32, %struct.GCRef, ptr, i32, i32, ptr, ptr, %struct.GCRef, %struct.MRef, i32, i32, ptr, i32, i16, i16, i16, i16, i16, i16, i16, i8, i8, i8, i8 }
%struct.MRef = type { i64 }
%struct.IRType1 = type { i8 }
%struct.FoldState = type { %union.IRIns, [2 x %union.IRIns], [2 x %union.IRIns] }
%union.IRIns = type { %struct.GCRef }
%struct.HotPenalty = type { %struct.MRef, i16, i16 }
%struct.BPropEntry = type { i16, i16, i32 }
%struct.ScEvEntry = type { %struct.MRef, i16, i16, i16, i16, %struct.IRType1, i8 }
%union.TValue = type { i64 }
%struct.anon.2 = type { i16, i16, i16, i16 }
%struct.lua_State = type { %struct.GCRef, i8, i8, i8, i8, %struct.MRef, %struct.GCRef, ptr, ptr, %struct.MRef, %struct.MRef, %struct.GCRef, %struct.GCRef, ptr, i32 }
%struct.GG_State = type { %struct.lua_State, %struct.global_State, %struct.jit_State, [64 x i16], [243 x ptr], [57 x i32] }
%struct.global_State = type { ptr, ptr, %struct.GCState, %struct.GCstr, i8, i8, i8, i8, %struct.StrInternState, i32, %struct.GCRef, %struct.SBuf, %union.TValue, %union.TValue, %struct.Node, %union.TValue, %struct.GCupval, i32, i32, ptr, ptr, ptr, i32, i32, %struct.GCRef, %struct.MRef, %struct.MRef, %struct.PRNGState, [39 x %struct.GCRef] }
%struct.GCState = type { i64, i64, i8, i8, i8, i8, i32, %struct.GCRef, %struct.MRef, %struct.GCRef, %struct.GCRef, %struct.GCRef, %struct.GCRef, i64, i64, i32, i32, %struct.MRef }
%struct.StrInternState = type { ptr, i32, i32, i32, i8, i8, i8, i8, i64 }
%struct.SBuf = type { ptr, ptr, ptr, %struct.MRef }
%struct.Node = type { %union.TValue, %union.TValue, %struct.MRef }
%struct.GCupval = type { %struct.GCRef, i8, i8, i8, i8, %union.anon, %struct.MRef, i32 }
%union.anon = type { %struct.anon.1 }
%struct.anon.1 = type { %struct.GCRef, %struct.GCRef }
%struct.PRNGState = type { [4 x i64] }

; Function Attrs: nounwind uwtable
define internal i32 @recff_bufhdr(ptr noundef %0) #0 {
  %2 = alloca ptr, align 8
  store ptr %0, ptr %2, align 8, !tbaa !4
  %3 = load ptr, ptr %2, align 8, !tbaa !4
  %4 = load ptr, ptr %2, align 8, !tbaa !4
  %5 = load ptr, ptr %2, align 8, !tbaa !4
  %6 = getelementptr inbounds i8, ptr %5, i64 -832
  %7 = getelementptr inbounds nuw %struct.GG_State, ptr %6, i32 0, i32 1
  %8 = getelementptr inbounds nuw %struct.global_State, ptr %7, i32 0, i32 11
  %9 = call i32 @lj_ir_kptr_(ptr noundef %4, i32 noundef 25, ptr noundef %8)
  %10 = trunc i32 %9 to i16
  call void @lj_ir_set_(ptr noundef %3, i16 noundef zeroext 21769, i16 noundef zeroext %10, i16 noundef zeroext 0)
  %11 = load ptr, ptr %2, align 8, !tbaa !4
  %12 = call i32 @lj_opt_fold(ptr noundef %11)
  ret i32 %12
}

; Function Attrs: alwaysinline nounwind uwtable
define internal void @lj_ir_set_(ptr noundef %0, i16 noundef zeroext %1, i16 noundef zeroext %2, i16 noundef zeroext %3) #1 {
  %5 = alloca ptr, align 8
  %6 = alloca i16, align 2
  %7 = alloca i16, align 2
  %8 = alloca i16, align 2
  store ptr %0, ptr %5, align 8, !tbaa !4
  store i16 %1, ptr %6, align 2, !tbaa !14
  store i16 %2, ptr %7, align 2, !tbaa !14
  store i16 %3, ptr %8, align 2, !tbaa !14
  %9 = load i16, ptr %6, align 2, !tbaa !14
  %10 = load ptr, ptr %5, align 8, !tbaa !4
  %11 = getelementptr inbounds nuw %struct.jit_State, ptr %10, i32 0, i32 14
  %12 = getelementptr inbounds nuw %struct.FoldState, ptr %11, i32 0, i32 0
  %13 = getelementptr inbounds nuw %struct.anon.2, ptr %12, i32 0, i32 2
  store i16 %9, ptr %13, align 4, !tbaa !13
  %14 = load i16, ptr %7, align 2, !tbaa !14
  %15 = load ptr, ptr %5, align 8, !tbaa !4
  %16 = getelementptr inbounds nuw %struct.jit_State, ptr %15, i32 0, i32 14
  %17 = getelementptr inbounds nuw %struct.FoldState, ptr %16, i32 0, i32 0
  %18 = getelementptr inbounds nuw %struct.anon.2, ptr %17, i32 0, i32 0
  store i16 %14, ptr %18, align 8, !tbaa !13
  %19 = load i16, ptr %8, align 2, !tbaa !14
  %20 = load ptr, ptr %5, align 8, !tbaa !4
  %21 = getelementptr inbounds nuw %struct.jit_State, ptr %20, i32 0, i32 14
  %22 = getelementptr inbounds nuw %struct.FoldState, ptr %21, i32 0, i32 0
  %23 = getelementptr inbounds nuw %struct.anon.2, ptr %22, i32 0, i32 1
  store i16 %19, ptr %23, align 2, !tbaa !13
  ret void
}

; Function Attrs: nounwind uwtable
define internal void @recff_string_char(ptr noundef %0, ptr noundef %1) #0 {
  %3 = alloca ptr, align 8
  %4 = alloca ptr, align 8
  %5 = alloca i32, align 4
  %6 = alloca i32, align 4
  %7 = alloca i32, align 4
  %8 = alloca i32, align 4
  %9 = alloca i32, align 4
  store ptr %0, ptr %3, align 8, !tbaa !4
  store ptr %1, ptr %4, align 8, !tbaa !46
  call void @llvm.lifetime.start.p0(i64 4, ptr %5) #9
  %10 = load ptr, ptr %3, align 8, !tbaa !4
  %11 = call i32 @lj_ir_kint(ptr noundef %10, i32 noundef 255)
  store i32 %11, ptr %5, align 4, !tbaa !9
  call void @llvm.lifetime.start.p0(i64 4, ptr %6) #9
  store i32 0, ptr %6, align 4, !tbaa !9
  br label %12

12:                                               ; preds = %49, %2
  %13 = load ptr, ptr %3, align 8, !tbaa !4
  %14 = getelementptr inbounds nuw %struct.jit_State, ptr %13, i32 0, i32 6
  %15 = load ptr, ptr %14, align 8, !tbaa !41
  %16 = load i32, ptr %6, align 4, !tbaa !9
  %17 = zext i32 %16 to i64
  %18 = getelementptr inbounds nuw i32, ptr %15, i64 %17
  %19 = load i32, ptr %18, align 4, !tbaa !9
  %20 = icmp ne i32 %19, 0
  br i1 %20, label %21, label %52

21:                                               ; preds = %12
  call void @llvm.lifetime.start.p0(i64 4, ptr %7) #9
  %22 = load ptr, ptr %3, align 8, !tbaa !4
  %23 = load ptr, ptr %3, align 8, !tbaa !4
  %24 = getelementptr inbounds nuw %struct.jit_State, ptr %23, i32 0, i32 6
  %25 = load ptr, ptr %24, align 8, !tbaa !41
  %26 = load i32, ptr %6, align 4, !tbaa !9
  %27 = zext i32 %26 to i64
  %28 = getelementptr inbounds nuw i32, ptr %25, i64 %27
  %29 = load i32, ptr %28, align 4, !tbaa !9
  %30 = call i32 @lj_opt_narrow_toint(ptr noundef %22, i32 noundef %29)
  store i32 %30, ptr %7, align 4, !tbaa !9
  %31 = load ptr, ptr %3, align 8, !tbaa !4
  %32 = load i32, ptr %7, align 4, !tbaa !9
  %33 = trunc i32 %32 to i16
  %34 = load i32, ptr %5, align 4, !tbaa !9
  %35 = trunc i32 %34 to i16
  call void @lj_ir_set_(ptr noundef %31, i16 noundef zeroext 1683, i16 noundef zeroext %33, i16 noundef zeroext %35)
  %36 = load ptr, ptr %3, align 8, !tbaa !4
  %37 = call i32 @lj_opt_fold(ptr noundef %36)
  %38 = load ptr, ptr %3, align 8, !tbaa !4
  %39 = load i32, ptr %7, align 4, !tbaa !9
  %40 = trunc i32 %39 to i16
  call void @lj_ir_set_(ptr noundef %38, i16 noundef zeroext 23812, i16 noundef zeroext %40, i16 noundef zeroext 2)
  %41 = load ptr, ptr %3, align 8, !tbaa !4
  %42 = call i32 @lj_opt_fold(ptr noundef %41)
  %43 = load ptr, ptr %3, align 8, !tbaa !4
  %44 = getelementptr inbounds nuw %struct.jit_State, ptr %43, i32 0, i32 6
  %45 = load ptr, ptr %44, align 8, !tbaa !41
  %46 = load i32, ptr %6, align 4, !tbaa !9
  %47 = zext i32 %46 to i64
  %48 = getelementptr inbounds nuw i32, ptr %45, i64 %47
  store i32 %42, ptr %48, align 4, !tbaa !9
  call void @llvm.lifetime.end.p0(i64 4, ptr %7) #9
  br label %49

49:                                               ; preds = %21
  %50 = load i32, ptr %6, align 4, !tbaa !9
  %51 = add i32 %50, 1
  store i32 %51, ptr %6, align 4, !tbaa !9
  br label %12, !llvm.loop !73

52:                                               ; preds = %12
  %53 = load i32, ptr %6, align 4, !tbaa !9
  %54 = icmp ugt i32 %53, 1
  br i1 %54, label %55, label %97

55:                                               ; preds = %52
  call void @llvm.lifetime.start.p0(i64 4, ptr %8) #9
  %56 = load ptr, ptr %3, align 8, !tbaa !4
  %57 = call i32 @recff_bufhdr(ptr noundef %56)
  store i32 %57, ptr %8, align 4, !tbaa !9
  call void @llvm.lifetime.start.p0(i64 4, ptr %9) #9
  %58 = load i32, ptr %8, align 4, !tbaa !9
  store i32 %58, ptr %9, align 4, !tbaa !9
  store i32 0, ptr %6, align 4, !tbaa !9
  br label %59

59:                                               ; preds = %82, %55
  %60 = load ptr, ptr %3, align 8, !tbaa !4
  %61 = getelementptr inbounds nuw %struct.jit_State, ptr %60, i32 0, i32 6
  %62 = load ptr, ptr %61, align 8, !tbaa !41
  %63 = load i32, ptr %6, align 4, !tbaa !9
  %64 = zext i32 %63 to i64
  %65 = getelementptr inbounds nuw i32, ptr %62, i64 %64
  %66 = load i32, ptr %65, align 4, !tbaa !9
  %67 = icmp ne i32 %66, 0
  br i1 %67, label %68, label %85

68:                                               ; preds = %59
  %69 = load ptr, ptr %3, align 8, !tbaa !4
  %70 = load i32, ptr %9, align 4, !tbaa !9
  %71 = trunc i32 %70 to i16
  %72 = load ptr, ptr %3, align 8, !tbaa !4
  %73 = getelementptr inbounds nuw %struct.jit_State, ptr %72, i32 0, i32 6
  %74 = load ptr, ptr %73, align 8, !tbaa !41
  %75 = load i32, ptr %6, align 4, !tbaa !9
  %76 = zext i32 %75 to i64
  %77 = getelementptr inbounds nuw i32, ptr %74, i64 %76
  %78 = load i32, ptr %77, align 4, !tbaa !9
  %79 = trunc i32 %78 to i16
  call void @lj_ir_set_(ptr noundef %69, i16 noundef zeroext 22153, i16 noundef zeroext %71, i16 noundef zeroext %79)
  %80 = load ptr, ptr %3, align 8, !tbaa !4
  %81 = call i32 @lj_opt_fold(ptr noundef %80)
  store i32 %81, ptr %9, align 4, !tbaa !9
  br label %82

82:                                               ; preds = %68
  %83 = load i32, ptr %6, align 4, !tbaa !9
  %84 = add i32 %83, 1
  store i32 %84, ptr %6, align 4, !tbaa !9
  br label %59, !llvm.loop !74

85:                                               ; preds = %59
  %86 = load ptr, ptr %3, align 8, !tbaa !4
  %87 = load i32, ptr %9, align 4, !tbaa !9
  %88 = trunc i32 %87 to i16
  %89 = load i32, ptr %8, align 4, !tbaa !9
  %90 = trunc i32 %89 to i16
  call void @lj_ir_set_(ptr noundef %86, i16 noundef zeroext 22404, i16 noundef zeroext %88, i16 noundef zeroext %90)
  %91 = load ptr, ptr %3, align 8, !tbaa !4
  %92 = call i32 @lj_opt_fold(ptr noundef %91)
  %93 = load ptr, ptr %3, align 8, !tbaa !4
  %94 = getelementptr inbounds nuw %struct.jit_State, ptr %93, i32 0, i32 6
  %95 = load ptr, ptr %94, align 8, !tbaa !41
  %96 = getelementptr inbounds i32, ptr %95, i64 0
  store i32 %92, ptr %96, align 4, !tbaa !9
  call void @llvm.lifetime.end.p0(i64 4, ptr %9) #9
  call void @llvm.lifetime.end.p0(i64 4, ptr %8) #9
  br label %112

97:                                               ; preds = %52
  %98 = load i32, ptr %6, align 4, !tbaa !9
  %99 = icmp eq i32 %98, 0
  br i1 %99, label %100, label %111

100:                                              ; preds = %97
  %101 = load ptr, ptr %3, align 8, !tbaa !4
  %102 = load ptr, ptr %3, align 8, !tbaa !4
  %103 = getelementptr inbounds i8, ptr %102, i64 -832
  %104 = getelementptr inbounds nuw %struct.GG_State, ptr %103, i32 0, i32 1
  %105 = getelementptr inbounds nuw %struct.global_State, ptr %104, i32 0, i32 3
  %106 = call i32 @lj_ir_kgc(ptr noundef %101, ptr noundef %105, i32 noundef 4)
  %107 = load ptr, ptr %3, align 8, !tbaa !4
  %108 = getelementptr inbounds nuw %struct.jit_State, ptr %107, i32 0, i32 6
  %109 = load ptr, ptr %108, align 8, !tbaa !41
  %110 = getelementptr inbounds i32, ptr %109, i64 0
  store i32 %106, ptr %110, align 4, !tbaa !9
  br label %111

111:                                              ; preds = %100, %97
  br label %112

112:                                              ; preds = %111, %85
  call void @llvm.lifetime.end.p0(i64 4, ptr %6) #9
  call void @llvm.lifetime.end.p0(i64 4, ptr %5) #9
  ret void
}