; Function Attrs: nounwind uwtable
define internal void @recff_string_char(ptr noundef %0, ptr readnone captures(none) %1) #0 {
  %3 = tail call i32 @lj_ir_kint(ptr noundef %0, i32 noundef 255) #9
  %4 = getelementptr inbounds nuw i8, ptr %0, i64 160
  %5 = load ptr, ptr %4, align 8, !tbaa !37
  %6 = load i32, ptr %5, align 4, !tbaa !39
  %.not39 = icmp eq i32 %6, 0
  br i1 %.not39, label %.thread, label %.lr.ph

.lr.ph:                                           ; preds = %2
  %7 = trunc i32 %3 to i16
  %8 = getelementptr inbounds nuw i8, ptr %0, i64 184
  %9 = getelementptr inbounds nuw i8, ptr %0, i64 188
  %10 = getelementptr inbounds nuw i8, ptr %0, i64 186
  br label %11

11:                                               ; preds = %.lr.ph, %11
  %12 = phi i32 [ %6, %.lr.ph ], [ %23, %11 ]
  %13 = phi i64 [ 0, %.lr.ph ], [ %21, %11 ]
  %.03540 = phi i32 [ 0, %.lr.ph ], [ %20, %11 ]
  %14 = tail call i32 @lj_opt_narrow_toint(ptr noundef nonnull %0, i32 noundef %12) #9
  %15 = trunc i32 %14 to i16
  store i16 1683, ptr %9, align 4, !tbaa !4
  store i16 %15, ptr %8, align 8, !tbaa !4
  store i16 %7, ptr %10, align 2, !tbaa !4
  %16 = tail call i32 @lj_opt_fold(ptr noundef nonnull %0) #9
  store i16 23812, ptr %9, align 4, !tbaa !4
  store i16 %15, ptr %8, align 8, !tbaa !4
  store i16 2, ptr %10, align 2, !tbaa !4
  %17 = tail call i32 @lj_opt_fold(ptr noundef nonnull %0) #9
  %18 = load ptr, ptr %4, align 8, !tbaa !37
  %19 = getelementptr inbounds nuw i32, ptr %18, i64 %13
  store i32 %17, ptr %19, align 4, !tbaa !39
  %20 = add i32 %.03540, 1
  %21 = zext i32 %20 to i64
  %22 = getelementptr inbounds nuw i32, ptr %18, i64 %21
  %23 = load i32, ptr %22, align 4, !tbaa !39
  %.not = icmp eq i32 %23, 0
  br i1 %.not, label %._crit_edge, label %11, !llvm.loop !64

._crit_edge:                                      ; preds = %11
  %24 = icmp ugt i32 %20, 1
  br i1 %24, label %25, label %47

25:                                               ; preds = %._crit_edge
  %26 = getelementptr inbounds i8, ptr %0, i64 -536
  %27 = tail call i32 @lj_ir_kptr_(ptr noundef nonnull %0, i32 noundef 25, ptr noundef nonnull %26) #9
  %28 = trunc i32 %27 to i16
  %29 = getelementptr inbounds nuw i8, ptr %0, i64 184
  %30 = getelementptr inbounds nuw i8, ptr %0, i64 188
  store i16 21769, ptr %30, align 4, !tbaa !4
  store i16 %28, ptr %29, align 8, !tbaa !4
  %31 = getelementptr inbounds nuw i8, ptr %0, i64 186
  store i16 0, ptr %31, align 2, !tbaa !4
  %32 = tail call i32 @lj_opt_fold(ptr noundef nonnull %0) #9
  %33 = load ptr, ptr %4, align 8, !tbaa !37
  %34 = load i32, ptr %33, align 4, !tbaa !39
  %.not3842 = icmp eq i32 %34, 0
  br i1 %.not3842, label %._crit_edge47, label %.lr.ph46

.lr.ph46:                                         ; preds = %25, %.lr.ph46
  %35 = phi i32 [ %43, %.lr.ph46 ], [ %34, %25 ]
  %.044 = phi i32 [ %38, %.lr.ph46 ], [ %32, %25 ]
  %.143 = phi i32 [ %39, %.lr.ph46 ], [ 0, %25 ]
  %36 = trunc i32 %.044 to i16
  %37 = trunc i32 %35 to i16
  store i16 22153, ptr %30, align 4, !tbaa !4
  store i16 %36, ptr %29, align 8, !tbaa !4
  store i16 %37, ptr %31, align 2, !tbaa !4
  %38 = tail call i32 @lj_opt_fold(ptr noundef nonnull %0) #9
  %39 = add i32 %.143, 1
  %40 = load ptr, ptr %4, align 8, !tbaa !37
  %41 = zext i32 %39 to i64
  %42 = getelementptr inbounds nuw i32, ptr %40, i64 %41
  %43 = load i32, ptr %42, align 4, !tbaa !39
  %.not38 = icmp eq i32 %43, 0
  br i1 %.not38, label %._crit_edge47, label %.lr.ph46, !llvm.loop !65

._crit_edge47:                                    ; preds = %.lr.ph46, %25
  %.0.lcssa = phi i32 [ %32, %25 ], [ %38, %.lr.ph46 ]
  %44 = trunc i32 %.0.lcssa to i16
  %45 = trunc i32 %32 to i16
  store i16 22404, ptr %30, align 4, !tbaa !4
  store i16 %44, ptr %29, align 8, !tbaa !4
  store i16 %45, ptr %31, align 2, !tbaa !4
  %46 = tail call i32 @lj_opt_fold(ptr noundef nonnull %0) #9
  br label %.sink.split

47:                                               ; preds = %._crit_edge
  %48 = icmp eq i32 %20, 0
  br i1 %48, label %.thread, label %52

.thread:                                          ; preds = %2, %47
  %49 = getelementptr inbounds i8, ptr %0, i64 -616
  %50 = tail call i32 @lj_ir_kgc(ptr noundef nonnull %0, ptr noundef nonnull %49, i32 noundef 4) #9
  br label %.sink.split

.sink.split:                                      ; preds = %._crit_edge47, %.thread
  %.sink = phi i32 [ %50, %.thread ], [ %46, %._crit_edge47 ]
  %51 = load ptr, ptr %4, align 8, !tbaa !37
  store i32 %.sink, ptr %51, align 4, !tbaa !39
  br label %52

52:                                               ; preds = %.sink.split, %47
  ret void
}